target datalayout = "e-m:e-p270:32:32-p271:32:32-p272:64:64-i64:64-i128:128-f80:128-n8:16:32:64-S128"
target triple = "x86_64-pc-linux-gnu"

%struct.FT_CMap_ClassRec_ = type { i64, ptr, ptr, ptr, ptr, ptr, ptr, ptr, ptr, ptr }
%struct.FT_CharMapRec_ = type { ptr, i32, i16, i16 }
%struct.PCF_FaceRec_ = type { %struct.FT_FaceRec_, %struct.FT_StreamRec_, ptr, ptr, ptr, %struct.PCF_TocRec_, %struct.PCF_AccelRec_, i32, ptr, i64, ptr, %struct.PCF_EncRec_, i64 }
%struct.FT_FaceRec_ = type { i64, i64, i64, i64, i64, ptr, ptr, i32, ptr, i32, ptr, %struct.FT_Generic_, %struct.FT_BBox_, i16, i16, i16, i16, i16, i16, i16, i16, ptr, ptr, ptr, ptr, ptr, ptr, %struct.FT_ListRec_, %struct.FT_Generic_, ptr, ptr }
%struct.FT_BBox_ = type { i64, i64, i64, i64 }
%struct.FT_ListRec_ = type { ptr, ptr }
%struct.FT_Generic_ = type { ptr, ptr }
%struct.FT_StreamRec_ = type { ptr, i64, i64, %union.FT_StreamDesc_, %union.FT_StreamDesc_, ptr, ptr, ptr, ptr, ptr }
%union.FT_StreamDesc_ = type { i64 }
%struct.PCF_TocRec_ = type { i64, i64, ptr }
%struct.PCF_AccelRec_ = type { i8, i8, i8, i8, i8, i8, i8, i64, i64, i64, %struct.PCF_MetricRec_, %struct.PCF_MetricRec_, %struct.PCF_MetricRec_, %struct.PCF_MetricRec_ }
%struct.PCF_MetricRec_ = type { i16, i16, i16, i16, i16, i16, i64 }
%struct.PCF_EncRec_ = type { i16, i16, i16, i16, i16, ptr }

@.str.5 = private unnamed_addr constant [6 x i8] c"10646\00", align 1
@.str.6 = private unnamed_addr constant [5 x i8] c"8859\00", align 1
@.str.7 = private unnamed_addr constant [2 x i8] c"1\00", align 1
@.str.8 = private unnamed_addr constant [9 x i8] c"646.1991\00", align 1
@.str.9 = private unnamed_addr constant [4 x i8] c"IRV\00", align 1
@pcf_cmap_class = internal constant %struct.FT_CMap_ClassRec_ { i64 32, ptr @pcf_cmap_init, ptr @pcf_cmap_done, ptr @pcf_cmap_char_index, ptr @pcf_cmap_char_next, ptr null, ptr null, ptr null, ptr null, ptr null }, align 8

; Function Attrs: nounwind uwtable
define internal i32 @PCF_Face_Init(ptr noundef %0, ptr noundef %1, i32 noundef %2, i32 noundef %3, ptr noundef %4) #0 {
  %6 = alloca i32, align 4
  %7 = alloca ptr, align 8
  %8 = alloca ptr, align 8
  %9 = alloca i32, align 4
  %10 = alloca i32, align 4
  %11 = alloca ptr, align 8
  %12 = alloca ptr, align 8
  %13 = alloca i32, align 4
  %14 = alloca i32, align 4
  %15 = alloca i32, align 4
  %16 = alloca i32, align 4
  %17 = alloca ptr, align 8
  %18 = alloca ptr, align 8
  %19 = alloca i8, align 1
  %20 = alloca ptr, align 8
  %21 = alloca %struct.FT_CharMapRec_, align 8
  store ptr %0, ptr %7, align 8
  store ptr %1, ptr %8, align 8
  store i32 %2, ptr %9, align 4
  store i32 %3, ptr %10, align 4
  store ptr %4, ptr %11, align 8
  %22 = load ptr, ptr %8, align 8
  store ptr %22, ptr %12, align 8
  %23 = load i32, ptr %10, align 4
  store i32 %23, ptr %10, align 4
  %24 = load ptr, ptr %11, align 8
  store ptr %24, ptr %11, align 8
  br label %25

25:                                               ; preds = %5
  br label %26

26:                                               ; preds = %25
  %27 = load ptr, ptr %7, align 8
  %28 = load ptr, ptr %12, align 8
  %29 = load i32, ptr %9, align 4
  %30 = sext i32 %29 to i64
  %31 = call i32 @pcf_load_font(ptr noundef %27, ptr noundef %28, i64 noundef %30)
  store i32 %31, ptr %13, align 4
  %32 = load i32, ptr %13, align 4
  %33 = icmp ne i32 %32, 0
  br i1 %33, label %34, label %103

34:                                               ; preds = %26
  %35 = load ptr, ptr %8, align 8
  call void @PCF_Face_Done(ptr noundef %35)
  br label %36

36:                                               ; preds = %34
  br label %37

37:                                               ; preds = %36
  %38 = load ptr, ptr %12, align 8
  %39 = getelementptr inbounds %struct.PCF_FaceRec_, ptr %38, i32 0, i32 1
  %40 = load ptr, ptr %7, align 8
  %41 = call i32 @FT_Stream_OpenGzip(ptr noundef %39, ptr noundef %40)
  store i32 %41, ptr %14, align 4
  %42 = load i32, ptr %14, align 4
  %43 = and i32 %42, 255
  %44 = icmp eq i32 %43, 7
  br i1 %44, label %45, label %46

45:                                               ; preds = %37
  br label %215

46:                                               ; preds = %37
  %47 = load i32, ptr %14, align 4
  store i32 %47, ptr %13, align 4
  %48 = load i32, ptr %13, align 4
  %49 = icmp ne i32 %48, 0
  br i1 %49, label %50, label %63

50:                                               ; preds = %46
  br label %51

51:                                               ; preds = %50
  br label %52

52:                                               ; preds = %51
  %53 = load ptr, ptr %12, align 8
  %54 = getelementptr inbounds %struct.PCF_FaceRec_, ptr %53, i32 0, i32 1
  %55 = load ptr, ptr %7, align 8
  %56 = call i32 @FT_Stream_OpenLZW(ptr noundef %54, ptr noundef %55)
  store i32 %56, ptr %15, align 4
  %57 = load i32, ptr %15, align 4
  %58 = and i32 %57, 255
  %59 = icmp eq i32 %58, 7
  br i1 %59, label %60, label %61

60:                                               ; preds = %52
  br label %215

61:                                               ; preds = %52
  %62 = load i32, ptr %15, align 4
  store i32 %62, ptr %13, align 4
  br label %63

63:                                               ; preds = %61, %46
  %64 = load i32, ptr %13, align 4
  %65 = icmp ne i32 %64, 0
  br i1 %65, label %66, label %79

66:                                               ; preds = %63
  br label %67

67:                                               ; preds = %66
  br label %68

68:                                               ; preds = %67
  %69 = load ptr, ptr %12, align 8
  %70 = getelementptr inbounds %struct.PCF_FaceRec_, ptr %69, i32 0, i32 1
  %71 = load ptr, ptr %7, align 8
  %72 = call i32 @FT_Stream_OpenBzip2(ptr noundef %70, ptr noundef %71)
  store i32 %72, ptr %16, align 4
  %73 = load i32, ptr %16, align 4
  %74 = and i32 %73, 255
  %75 = icmp eq i32 %74, 7
  br i1 %75, label %76, label %77

76:                                               ; preds = %68
  br label %215

77:                                               ; preds = %68
  %78 = load i32, ptr %16, align 4
  store i32 %78, ptr %13, align 4
  br label %79

79:                                               ; preds = %77, %63
  %80 = load i32, ptr %13, align 4
  %81 = icmp ne i32 %80, 0
  br i1 %81, label %82, label %83

82:                                               ; preds = %79
  br label %215

83:                                               ; preds = %79
  %84 = load ptr, ptr %7, align 8
  %85 = load ptr, ptr %12, align 8
  %86 = getelementptr inbounds %struct.PCF_FaceRec_, ptr %85, i32 0, i32 2
  store ptr %84, ptr %86, align 8
  %87 = load ptr, ptr %12, align 8
  %88 = getelementptr inbounds %struct.PCF_FaceRec_, ptr %87, i32 0, i32 1
  %89 = load ptr, ptr %8, align 8
  %90 = getelementptr inbounds %struct.FT_FaceRec_, ptr %89, i32 0, i32 26
  store ptr %88, ptr %90, align 8
  %91 = load ptr, ptr %8, align 8
  %92 = getelementptr inbounds %struct.FT_FaceRec_, ptr %91, i32 0, i32 26
  %93 = load ptr, ptr %92, align 8
  store ptr %93, ptr %7, align 8
  %94 = load ptr, ptr %7, align 8
  %95 = load ptr, ptr %12, align 8
  %96 = load i32, ptr %9, align 4
  %97 = sext i32 %96 to i64
  %98 = call i32 @pcf_load_font(ptr noundef %94, ptr noundef %95, i64 noundef %97)
  store i32 %98, ptr %13, align 4
  %99 = load i32, ptr %13, align 4
  %100 = icmp ne i32 %99, 0
  br i1 %100, label %101, label %102

101:                                              ; preds = %83
  br label %215

102:                                              ; preds = %83
  br label %103

103:                                              ; preds = %102, %26
  %104 = load i32, ptr %9, align 4
  %105 = icmp slt i32 %104, 0
  br i1 %105, label %106, label %107

106:                                              ; preds = %103
  br label %213

107:                                              ; preds = %103
  %108 = load i32, ptr %9, align 4
  %109 = icmp sgt i32 %108, 0
  br i1 %109, label %110, label %118

110:                                              ; preds = %107
  %111 = load i32, ptr %9, align 4
  %112 = and i32 %111, 65535
  %113 = icmp sgt i32 %112, 0
  br i1 %113, label %114, label %118

114:                                              ; preds = %110
  br label %115

115:                                              ; preds = %114
  br label %116

116:                                              ; preds = %115
  %117 = load ptr, ptr %8, align 8
  call void @PCF_Face_Done(ptr noundef %117)
  store i32 6, ptr %6, align 4
  br label %219

118:                                              ; preds = %110, %107
  br label %119

119:                                              ; preds = %118
  %120 = load ptr, ptr %12, align 8
  %121 = getelementptr inbounds %struct.PCF_FaceRec_, ptr %120, i32 0, i32 4
  %122 = load ptr, ptr %121, align 8
  store ptr %122, ptr %17, align 8
  %123 = load ptr, ptr %12, align 8
  %124 = getelementptr inbounds %struct.PCF_FaceRec_, ptr %123, i32 0, i32 3
  %125 = load ptr, ptr %124, align 8
  store ptr %125, ptr %18, align 8
  store i8 0, ptr %19, align 1
  %126 = load ptr, ptr %17, align 8
  %127 = icmp ne ptr %126, null
  br i1 %127, label %128, label %199

128:                                              ; preds = %119
  %129 = load ptr, ptr %18, align 8
  %130 = icmp ne ptr %129, null
  br i1 %130, label %131, label %199

131:                                              ; preds = %128
  %132 = load ptr, ptr %17, align 8
  store ptr %132, ptr %20, align 8
  %133 = load ptr, ptr %20, align 8
  %134 = getelementptr inbounds i8, ptr %133, i64 0
  %135 = load i8, ptr %134, align 1
  %136 = sext i8 %135 to i32
  %137 = icmp eq i32 %136, 105
  br i1 %137, label %144, label %138

138:                                              ; preds = %131
  %139 = load ptr, ptr %20, align 8
  %140 = getelementptr inbounds i8, ptr %139, i64 0
  %141 = load i8, ptr %140, align 1
  %142 = sext i8 %141 to i32
  %143 = icmp eq i32 %142, 73
  br i1 %143, label %144, label %198

144:                                              ; preds = %138, %131
  %145 = load ptr, ptr %20, align 8
  %146 = getelementptr inbounds i8, ptr %145, i64 1
  %147 = load i8, ptr %146, align 1
  %148 = sext i8 %147 to i32
  %149 = icmp eq i32 %148, 115
  br i1 %149, label %156, label %150

150:                                              ; preds = %144
  %151 = load ptr, ptr %20, align 8
  %152 = getelementptr inbounds i8, ptr %151, i64 1
  %153 = load i8, ptr %152, align 1
  %154 = sext i8 %153 to i32
  %155 = icmp eq i32 %154, 83
  br i1 %155, label %156, label %198

156:                                              ; preds = %150, %144
  %157 = load ptr, ptr %20, align 8
  %158 = getelementptr inbounds i8, ptr %157, i64 2
  %159 = load i8, ptr %158, align 1
  %160 = sext i8 %159 to i32
  %161 = icmp eq i32 %160, 111
  br i1 %161, label %168, label %162

162:                                              ; preds = %156
  %163 = load ptr, ptr %20, align 8
  %164 = getelementptr inbounds i8, ptr %163, i64 2
  %165 = load i8, ptr %164, align 1
  %166 = sext i8 %165 to i32
  %167 = icmp eq i32 %166, 79
  br i1 %167, label %168, label %198

168:                                              ; preds = %162, %156
  %169 = load ptr, ptr %20, align 8
  %170 = getelementptr inbounds i8, ptr %169, i64 3
  store ptr %170, ptr %20, align 8
  %171 = load ptr, ptr %20, align 8
  %172 = call i32 @strcmp(ptr noundef %171, ptr noundef @.str.5) #6
  %173 = icmp ne i32 %172, 0
  br i1 %173, label %174, label %184

174:                                              ; preds = %168
  %175 = load ptr, ptr %20, align 8
  %176 = call i32 @strcmp(ptr noundef %175, ptr noundef @.str.6) #6
  %177 = icmp ne i32 %176, 0
  br i1 %177, label %185, label %178

178:                                              ; preds = %174
  %179 = load ptr, ptr %12, align 8
  %180 = getelementptr inbounds %struct.PCF_FaceRec_, ptr %179, i32 0, i32 3
  %181 = load ptr, ptr %180, align 8
  %182 = call i32 @strcmp(ptr noundef %181, ptr noundef @.str.7) #6
  %183 = icmp ne i32 %182, 0
  br i1 %183, label %185, label %184

184:                                              ; preds = %178, %168
  store i8 1, ptr %19, align 1
  br label %197

185:                                              ; preds = %178, %174
  %186 = load ptr, ptr %20, align 8
  %187 = call i32 @strcmp(ptr noundef %186, ptr noundef @.str.8) #6
  %188 = icmp ne i32 %187, 0
  br i1 %188, label %196, label %189

189:                                              ; preds = %185
  %190 = load ptr, ptr %12, align 8
  %191 = getelementptr inbounds %struct.PCF_FaceRec_, ptr %190, i32 0, i32 3
  %192 = load ptr, ptr %191, align 8
  %193 = call i32 @strcmp(ptr noundef %192, ptr noundef @.str.9) #6
  %194 = icmp ne i32 %193, 0
  br i1 %194, label %196, label %195

195:                                              ; preds = %189
  store i8 1, ptr %19, align 1
  br label %196

196:                                              ; preds = %195, %189, %185
  br label %197

197:                                              ; preds = %196, %184
  br label %198

198:                                              ; preds = %197, %162, %150, %138
  br label %199

199:                                              ; preds = %198, %128, %119
  %200 = load ptr, ptr %8, align 8
  %201 = getelementptr inbounds %struct.FT_CharMapRec_, ptr %21, i32 0, i32 0
  store ptr %200, ptr %201, align 8
  %202 = getelementptr inbounds %struct.FT_CharMapRec_, ptr %21, i32 0, i32 1
  store i32 0, ptr %202, align 8
  %203 = getelementptr inbounds %struct.FT_CharMapRec_, ptr %21, i32 0, i32 2
  store i16 0, ptr %203, align 4
  %204 = getelementptr inbounds %struct.FT_CharMapRec_, ptr %21, i32 0, i32 3
  store i16 0, ptr %204, align 2
  %205 = load i8, ptr %19, align 1
  %206 = icmp ne i8 %205, 0
  br i1 %206, label %207, label %211

207:                                              ; preds = %199
  %208 = getelementptr inbounds %struct.FT_CharMapRec_, ptr %21, i32 0, i32 1
  store i32 1970170211, ptr %208, align 8
  %209 = getelementptr inbounds %struct.FT_CharMapRec_, ptr %21, i32 0, i32 2
  store i16 3, ptr %209, align 4
  %210 = getelementptr inbounds %struct.FT_CharMapRec_, ptr %21, i32 0, i32 3
  store i16 1, ptr %210, align 2
  br label %211

211:                                              ; preds = %207, %199
  %212 = call i32 @FT_CMap_New(ptr noundef @pcf_cmap_class, ptr noundef null, ptr noundef %21, ptr noundef null)
  store i32 %212, ptr %13, align 4
  br label %213

213:                                              ; preds = %217, %211, %106
  %214 = load i32, ptr %13, align 4
  store i32 %214, ptr %6, align 4
  br label %219

215:                                              ; preds = %101, %82, %76, %60, %45
  br label %216

216:                                              ; preds = %215
  br label %217

217:                                              ; preds = %216
  %218 = load ptr, ptr %8, align 8
  call void @PCF_Face_Done(ptr noundef %218)
  store i32 2, ptr %13, align 4
  br label %213

219:                                              ; preds = %213, %116
  %220 = load i32, ptr %6, align 4
  ret i32 %220
}