; Function Attrs: nounwind uwtable
define internal i32 @PCF_Face_Init(ptr noundef %0, ptr noundef %1, i32 noundef %2, i32 %3, ptr nocapture readnone %4) #1 {
  %6 = alloca %struct.FT_CharMapRec_, align 8
  %7 = sext i32 %2 to i64
  %8 = tail call fastcc i32 @pcf_load_font(ptr noundef %0, ptr noundef %1, i64 noundef %7)
  %.not = icmp eq i32 %8, 0
  br i1 %.not, label %27, label %9

9:                                                ; preds = %5
  tail call void @PCF_Face_Done(ptr noundef %1)
  %10 = getelementptr inbounds i8, ptr %1, i64 248
  %11 = tail call i32 @FT_Stream_OpenGzip(ptr noundef nonnull %10, ptr noundef %0) #15
  %12 = and i32 %11, 255
  %13 = icmp eq i32 %12, 7
  br i1 %13, label %72, label %14

14:                                               ; preds = %9
  %.not68 = icmp eq i32 %11, 0
  br i1 %.not68, label %.critedge80, label %15

15:                                               ; preds = %14
  %16 = tail call i32 @FT_Stream_OpenLZW(ptr noundef nonnull %10, ptr noundef %0) #15
  %17 = and i32 %16, 255
  %18 = icmp eq i32 %17, 7
  br i1 %18, label %72, label %19

19:                                               ; preds = %15
  %20 = icmp eq i32 %16, 0
  br i1 %20, label %.critedge80, label %21

21:                                               ; preds = %19
  %22 = tail call i32 @FT_Stream_OpenBzip2(ptr noundef nonnull %10, ptr noundef %0) #15
  %23 = icmp eq i32 %22, 0
  br i1 %23, label %.critedge80, label %72

.critedge80:                                      ; preds = %19, %14, %21
  %24 = getelementptr inbounds i8, ptr %1, i64 328
  store ptr %0, ptr %24, align 8
  %25 = getelementptr inbounds i8, ptr %1, i64 192
  store ptr %10, ptr %25, align 8
  %26 = tail call fastcc i32 @pcf_load_font(ptr noundef nonnull %10, ptr noundef %1, i64 noundef %7)
  %.not71 = icmp eq i32 %26, 0
  br i1 %.not71, label %27, label %72

27:                                               ; preds = %.critedge80, %5
  %28 = icmp slt i32 %2, 0
  br i1 %28, label %73, label %29

29:                                               ; preds = %27
  %30 = and i32 %2, 65535
  %.not73 = icmp eq i32 %30, 0
  br i1 %.not73, label %32, label %31

31:                                               ; preds = %29
  tail call void @PCF_Face_Done(ptr noundef %1)
  br label %73

32:                                               ; preds = %29
  %33 = getelementptr inbounds i8, ptr %1, i64 344
  %34 = load ptr, ptr %33, align 8
  %35 = getelementptr inbounds i8, ptr %1, i64 336
  %36 = load ptr, ptr %35, align 8
  %37 = icmp ne ptr %34, null
  %38 = icmp ne ptr %36, null
  %or.cond = select i1 %37, i1 %38, i1 false
  br i1 %or.cond, label %39, label %.thread

39:                                               ; preds = %32
  %40 = load i8, ptr %34, align 1
  switch i8 %40, label %.thread [
    i8 105, label %41
    i8 73, label %41
  ]

41:                                               ; preds = %39, %39
  %42 = getelementptr inbounds i8, ptr %34, i64 1
  %43 = load i8, ptr %42, align 1
  switch i8 %43, label %.thread [
    i8 115, label %44
    i8 83, label %44
  ]

44:                                               ; preds = %41, %41
  %45 = getelementptr inbounds i8, ptr %34, i64 2
  %46 = load i8, ptr %45, align 1
  switch i8 %46, label %.thread [
    i8 111, label %47
    i8 79, label %47
  ]

47:                                               ; preds = %44, %44
  %48 = getelementptr inbounds i8, ptr %34, i64 3
  %49 = tail call i32 @strcmp(ptr noundef nonnull dereferenceable(1) %48, ptr noundef nonnull dereferenceable(6) @.str.5) #16
  %.not74 = icmp eq i32 %49, 0
  br i1 %.not74, label %.thread85, label %50

50:                                               ; preds = %47
  %51 = tail call i32 @strcmp(ptr noundef nonnull dereferenceable(1) %48, ptr noundef nonnull dereferenceable(5) @.str.6) #16
  %.not75 = icmp eq i32 %51, 0
  br i1 %.not75, label %sub_0, label %.tail.thread

sub_0:                                            ; preds = %50
  %52 = load i8, ptr %36, align 1
  %.not87 = icmp eq i8 %52, 49
  br i1 %.not87, label %.tail, label %.tail.thread

.tail:                                            ; preds = %sub_0
  %53 = getelementptr inbounds i8, ptr %36, i64 1
  %54 = load i8, ptr %53, align 1
  %55 = icmp eq i8 %54, 0
  br i1 %55, label %.thread85, label %.tail.thread

.tail.thread:                                     ; preds = %sub_0, %.tail, %50
  %56 = tail call i32 @strcmp(ptr noundef nonnull dereferenceable(1) %48, ptr noundef nonnull dereferenceable(9) @.str.8) #16
  %.not77 = icmp eq i32 %56, 0
  br i1 %.not77, label %61, label %.thread

.thread:                                          ; preds = %.tail.thread, %32, %39, %41, %44
  store ptr %1, ptr %6, align 8
  %57 = getelementptr inbounds i8, ptr %6, i64 8
  store i64 0, ptr %57, align 8
  br label %70

.thread85:                                        ; preds = %.tail, %47
  store ptr %1, ptr %6, align 8
  %58 = getelementptr inbounds i8, ptr %6, i64 8
  %59 = getelementptr inbounds i8, ptr %6, i64 12
  %60 = getelementptr inbounds i8, ptr %6, i64 14
  store i64 0, ptr %58, align 8
  br label %66

61:                                               ; preds = %.tail.thread
  %62 = tail call i32 @strcmp(ptr noundef nonnull dereferenceable(1) %36, ptr noundef nonnull dereferenceable(4) @.str.9) #16
  %.not78.not = icmp eq i32 %62, 0
  store ptr %1, ptr %6, align 8
  %63 = getelementptr inbounds i8, ptr %6, i64 8
  %64 = getelementptr inbounds i8, ptr %6, i64 12
  %65 = getelementptr inbounds i8, ptr %6, i64 14
  store i64 0, ptr %63, align 8
  br i1 %.not78.not, label %66, label %70

66:                                               ; preds = %.thread85, %61
  %67 = phi ptr [ %60, %.thread85 ], [ %65, %61 ]
  %68 = phi ptr [ %59, %.thread85 ], [ %64, %61 ]
  %69 = phi ptr [ %58, %.thread85 ], [ %63, %61 ]
  store i32 1970170211, ptr %69, align 8
  store i16 3, ptr %68, align 4
  store i16 1, ptr %67, align 2
  br label %70

70:                                               ; preds = %.thread, %66, %61
  %71 = call i32 @FT_CMap_New(ptr noundef nonnull @pcf_cmap_class, ptr noundef null, ptr noundef nonnull %6, ptr noundef null) #15
  br label %73

72:                                               ; preds = %.critedge80, %21, %15, %9
  tail call void @PCF_Face_Done(ptr noundef %1)
  br label %73

73:                                               ; preds = %70, %72, %27, %31
  %.058 = phi i32 [ 6, %31 ], [ 2, %72 ], [ 0, %27 ], [ %71, %70 ]
  ret i32 %.058
}